target datalayout = "e-m:e-p270:32:32-p271:32:32-p272:64:64-i64:64-i128:128-f80:128-n8:16:32:64-S128"
target triple = "x86_64-unknown-linux-gnu"

%"struct.std::pair" = type <{ %"struct.std::__detail::_Node_iterator", i8, [7 x i8] }>
%"struct.std::__detail::_Node_iterator" = type { %"struct.std::__detail::_Node_iterator_base" }
%"struct.std::__detail::_Node_iterator_base" = type { ptr }
%"struct.ue2::SlotCache" = type { %"class.std::unordered_set", %"class.std::unordered_set.12", %"class.std::vector" }
%"class.std::unordered_set" = type { %"class.std::_Hashtable" }
%"class.std::_Hashtable" = type { ptr, i64, %"struct.std::__detail::_Hash_node_base", i64, %"struct.std::__detail::_Prime_rehash_policy", ptr }
%"struct.std::__detail::_Hash_node_base" = type { ptr }
%"struct.std::__detail::_Prime_rehash_policy" = type { float, i64 }
%"class.std::unordered_set.12" = type { %"class.std::_Hashtable.13" }
%"class.std::_Hashtable.13" = type { ptr, i64, %"struct.std::__detail::_Hash_node_base", i64, %"struct.std::__detail::_Prime_rehash_policy", ptr }
%"class.std::vector" = type { %"struct.std::_Vector_base" }
%"struct.std::_Vector_base" = type { %"struct.std::_Vector_base<ue2::InitialResetInfo, std::allocator<ue2::InitialResetInfo>>::_Vector_impl" }
%"struct.std::_Vector_base<ue2::InitialResetInfo, std::allocator<ue2::InitialResetInfo>>::_Vector_impl" = type { %"struct.std::_Vector_base<ue2::InitialResetInfo, std::allocator<ue2::InitialResetInfo>>::_Vector_impl_data" }
%"struct.std::_Vector_base<ue2::InitialResetInfo, std::allocator<ue2::InitialResetInfo>>::_Vector_impl_data" = type { ptr, ptr, ptr }

; Function Attrs: mustprogress uwtable
define linkonce_odr hidden { ptr, i8 } @_ZNSt10_HashtableIN3ue214SlotCacheEntryES1_SaIS1_ENSt8__detail9_IdentityENS0_14SlotEntryEqualENS0_15SlotEntryHasherENS3_18_Mod_range_hashingENS3_20_Default_ranged_hashENS3_20_Prime_rehash_policyENS3_17_Hashtable_traitsILb1ELb1ELb1EEEE7emplaceIJRKNS0_8NGHolderERKNS0_9CharReachERjRbSK_EEESt4pairINS3_14_Node_iteratorIS1_Lb1ELb1EEEbEDpOT_(ptr noundef nonnull align 8 dereferenceable(56) %this, ptr noundef nonnull align 8 dereferenceable(136) %__args, ptr noundef nonnull align 8 dereferenceable(32) %__args1, ptr noundef nonnull align 4 dereferenceable(4) %__args3, ptr noundef nonnull align 1 dereferenceable(1) %__args5, ptr noundef nonnull align 4 dereferenceable(4) %__args7) #3 comdat align 2 {
entry:
  %retval = alloca %"struct.std::pair", align 8
  %this.addr = alloca ptr, align 8
  %__args.addr = alloca ptr, align 8
  %__args.addr2 = alloca ptr, align 8
  %__args.addr4 = alloca ptr, align 8
  %__args.addr6 = alloca ptr, align 8
  %__args.addr8 = alloca ptr, align 8
  store ptr %this, ptr %this.addr, align 8
  store ptr %__args, ptr %__args.addr, align 8
  store ptr %__args1, ptr %__args.addr2, align 8
  store ptr %__args3, ptr %__args.addr4, align 8
  store ptr %__args5, ptr %__args.addr6, align 8
  store ptr %__args7, ptr %__args.addr8, align 8
  %this9 = load ptr, ptr %this.addr, align 8
  %0 = load ptr, ptr %__args.addr, align 8
  %1 = load ptr, ptr %__args.addr2, align 8
  %2 = load ptr, ptr %__args.addr4, align 8
  %3 = load ptr, ptr %__args.addr6, align 8
  %4 = load ptr, ptr %__args.addr8, align 8
  %call = call { ptr, i8 } @_ZNSt10_HashtableIN3ue214SlotCacheEntryES1_SaIS1_ENSt8__detail9_IdentityENS0_14SlotEntryEqualENS0_15SlotEntryHasherENS3_18_Mod_range_hashingENS3_20_Default_ranged_hashENS3_20_Prime_rehash_policyENS3_17_Hashtable_traitsILb1ELb1ELb1EEEE10_M_emplaceIJRKNS0_8NGHolderERKNS0_9CharReachERjRbSK_EEESt4pairINS3_14_Node_iteratorIS1_Lb1ELb1EEEbESt17integral_constantIbLb1EEDpOT_(ptr noundef nonnull align 8 dereferenceable(56) %this9, ptr noundef nonnull align 8 dereferenceable(136) %0, ptr noundef nonnull align 8 dereferenceable(32) %1, ptr noundef nonnull align 4 dereferenceable(4) %2, ptr noundef nonnull align 1 dereferenceable(1) %3, ptr noundef nonnull align 4 dereferenceable(4) %4)
  %5 = getelementptr inbounds { ptr, i8 }, ptr %retval, i32 0, i32 0
  %6 = extractvalue { ptr, i8 } %call, 0
  store ptr %6, ptr %5, align 8
  %7 = getelementptr inbounds { ptr, i8 }, ptr %retval, i32 0, i32 1
  %8 = extractvalue { ptr, i8 } %call, 1
  store i8 %8, ptr %7, align 8
  %9 = load { ptr, i8 }, ptr %retval, align 8
  ret { ptr, i8 } %9
}

; Function Attrs: mustprogress uwtable
define linkonce_odr hidden { ptr, i8 } @_ZNSt13unordered_setIN3ue214SlotCacheEntryENS0_15SlotEntryHasherENS0_14SlotEntryEqualESaIS1_EE7emplaceIJRKNS0_8NGHolderERKNS0_9CharReachERjRbSD_EEESt4pairINSt8__detail14_Node_iteratorIS1_Lb1ELb1EEEbEDpOT_(ptr noundef nonnull align 8 dereferenceable(56) %this, ptr noundef nonnull align 8 dereferenceable(136) %__args, ptr noundef nonnull align 8 dereferenceable(32) %__args1, ptr noundef nonnull align 4 dereferenceable(4) %__args3, ptr noundef nonnull align 1 dereferenceable(1) %__args5, ptr noundef nonnull align 4 dereferenceable(4) %__args7) #3 comdat align 2 {
entry:
  %retval = alloca %"struct.std::pair", align 8
  %this.addr = alloca ptr, align 8
  %__args.addr = alloca ptr, align 8
  %__args.addr2 = alloca ptr, align 8
  %__args.addr4 = alloca ptr, align 8
  %__args.addr6 = alloca ptr, align 8
  %__args.addr8 = alloca ptr, align 8
  store ptr %this, ptr %this.addr, align 8
  store ptr %__args, ptr %__args.addr, align 8
  store ptr %__args1, ptr %__args.addr2, align 8
  store ptr %__args3, ptr %__args.addr4, align 8
  store ptr %__args5, ptr %__args.addr6, align 8
  store ptr %__args7, ptr %__args.addr8, align 8
  %this9 = load ptr, ptr %this.addr, align 8
  %_M_h = getelementptr inbounds %"class.std::unordered_set", ptr %this9, i32 0, i32 0
  %0 = load ptr, ptr %__args.addr, align 8
  %1 = load ptr, ptr %__args.addr2, align 8
  %2 = load ptr, ptr %__args.addr4, align 8
  %3 = load ptr, ptr %__args.addr6, align 8
  %4 = load ptr, ptr %__args.addr8, align 8
  %call = call { ptr, i8 } @_ZNSt10_HashtableIN3ue214SlotCacheEntryES1_SaIS1_ENSt8__detail9_IdentityENS0_14SlotEntryEqualENS0_15SlotEntryHasherENS3_18_Mod_range_hashingENS3_20_Default_ranged_hashENS3_20_Prime_rehash_policyENS3_17_Hashtable_traitsILb1ELb1ELb1EEEE7emplaceIJRKNS0_8NGHolderERKNS0_9CharReachERjRbSK_EEESt4pairINS3_14_Node_iteratorIS1_Lb1ELb1EEEbEDpOT_(ptr noundef nonnull align 8 dereferenceable(56) %_M_h, ptr noundef nonnull align 8 dereferenceable(136) %0, ptr noundef nonnull align 8 dereferenceable(32) %1, ptr noundef nonnull align 4 dereferenceable(4) %2, ptr noundef nonnull align 1 dereferenceable(1) %3, ptr noundef nonnull align 4 dereferenceable(4) %4)
  %5 = getelementptr inbounds { ptr, i8 }, ptr %retval, i32 0, i32 0
  %6 = extractvalue { ptr, i8 } %call, 0
  store ptr %6, ptr %5, align 8
  %7 = getelementptr inbounds { ptr, i8 }, ptr %retval, i32 0, i32 1
  %8 = extractvalue { ptr, i8 } %call, 1
  store i8 %8, ptr %7, align 8
  %9 = load { ptr, i8 }, ptr %retval, align 8
  ret { ptr, i8 } %9
}

; Function Attrs: mustprogress uwtable
define hidden void @_ZN3ue29SlotCache6insertERKNS_8NGHolderERKNS_9CharReachEjbj(ptr noundef nonnull align 8 dereferenceable(136) %this, ptr noundef nonnull align 8 dereferenceable(136) %prefix, ptr noundef nonnull align 8 dereferenceable(32) %escapes, i32 noundef %parent_slot, i1 noundef zeroext %is_reset, i32 noundef %slot) #3 align 2 {
entry:
  %this.addr = alloca ptr, align 8
  %prefix.addr = alloca ptr, align 8
  %escapes.addr = alloca ptr, align 8
  %parent_slot.addr = alloca i32, align 4
  %is_reset.addr = alloca i8, align 1
  %slot.addr = alloca i32, align 4
  %coerce = alloca %"struct.std::pair", align 8
  store ptr %this, ptr %this.addr, align 8
  store ptr %prefix, ptr %prefix.addr, align 8
  store ptr %escapes, ptr %escapes.addr, align 8
  store i32 %parent_slot, ptr %parent_slot.addr, align 4
  %frombool = zext i1 %is_reset to i8
  store i8 %frombool, ptr %is_reset.addr, align 1
  store i32 %slot, ptr %slot.addr, align 4
  %this1 = load ptr, ptr %this.addr, align 8
  %store = getelementptr inbounds %"struct.ue2::SlotCache", ptr %this1, i32 0, i32 0
  %0 = load ptr, ptr %prefix.addr, align 8
  %1 = load ptr, ptr %escapes.addr, align 8
  %call = call { ptr, i8 } @_ZNSt13unordered_setIN3ue214SlotCacheEntryENS0_15SlotEntryHasherENS0_14SlotEntryEqualESaIS1_EE7emplaceIJRKNS0_8NGHolderERKNS0_9CharReachERjRbSD_EEESt4pairINSt8__detail14_Node_iteratorIS1_Lb1ELb1EEEbEDpOT_(ptr noundef nonnull align 8 dereferenceable(56) %store, ptr noundef nonnull align 8 dereferenceable(136) %0, ptr noundef nonnull align 8 dereferenceable(32) %1, ptr noundef nonnull align 4 dereferenceable(4) %parent_slot.addr, ptr noundef nonnull align 1 dereferenceable(1) %is_reset.addr, ptr noundef nonnull align 4 dereferenceable(4) %slot.addr)
  %2 = getelementptr inbounds { ptr, i8 }, ptr %coerce, i32 0, i32 0
  %3 = extractvalue { ptr, i8 } %call, 0
  store ptr %3, ptr %2, align 8
  %4 = getelementptr inbounds { ptr, i8 }, ptr %coerce, i32 0, i32 1
  %5 = extractvalue { ptr, i8 } %call, 1
  store i8 %5, ptr %4, align 8
  ret void
}