; Function Attrs: mustprogress uwtable
define hidden void @_ZN3ue29SlotCache6insertERKNS_8NGHolderERKNS_9CharReachEjbj(ptr noundef nonnull align 8 dereferenceable(136) %this, ptr noundef nonnull align 8 dereferenceable(136) %prefix, ptr noundef nonnull align 8 dereferenceable(32) %escapes, i32 noundef %parent_slot, i1 noundef zeroext %is_reset, i32 noundef %slot) local_unnamed_addr #2 align 2 {
entry:
  %parent_slot.addr = alloca i32, align 4
  %is_reset.addr = alloca i8, align 1
  %slot.addr = alloca i32, align 4
  store i32 %parent_slot, ptr %parent_slot.addr, align 4
  %frombool = zext i1 %is_reset to i8
  store i8 %frombool, ptr %is_reset.addr, align 1
  store i32 %slot, ptr %slot.addr, align 4
  %call.i.i = call { ptr, i8 } @_ZNSt10_HashtableIN3ue214SlotCacheEntryES1_SaIS1_ENSt8__detail9_IdentityENS0_14SlotEntryEqualENS0_15SlotEntryHasherENS3_18_Mod_range_hashingENS3_20_Default_ranged_hashENS3_20_Prime_rehash_policyENS3_17_Hashtable_traitsILb1ELb1ELb1EEEE10_M_emplaceIJRKNS0_8NGHolderERKNS0_9CharReachERjRbSK_EEESt4pairINS3_14_Node_iteratorIS1_Lb1ELb1EEEbESt17integral_constantIbLb1EEDpOT_(ptr noundef nonnull align 8 dereferenceable(56) %this, ptr noundef nonnull align 8 dereferenceable(136) %prefix, ptr noundef nonnull align 8 dereferenceable(32) %escapes, ptr noundef nonnull align 4 dereferenceable(4) %parent_slot.addr, ptr noundef nonnull align 1 dereferenceable(1) %is_reset.addr, ptr noundef nonnull align 4 dereferenceable(4) %slot.addr)
  ret void
}